target datalayout = "e-m:e-p270:32:32-p271:32:32-p272:64:64-i64:64-i128:128-f80:128-n8:16:32:64-S128"
target triple = "x86_64-pc-linux-gnu"

%struct._ir_ctx = type { ptr, i32, i32, i32, i32, i32, i32, i32, i32, i32, i32, %struct._ir_insn, ptr, ptr, ptr, i32, i32, i32, ptr, ptr, ptr, ptr, ptr, ptr, i32, i32, i64, i32, i32, i32, i64, i32, i32, i32, i32, ptr, ptr, ptr, ptr, ptr, ptr, %union.anon.13, ptr, i32, i32, i32, i64, i32, i32, i32, ptr, ptr, ptr, ptr, %struct._ir_strtab, [61 x i32], [14 x i32] }
%struct._ir_insn = type { %struct.anon, %union.anon.5 }
%struct.anon = type { %union.anon, %union.anon.4 }
%union.anon = type { i32 }
%union.anon.4 = type { i32 }
%union.anon.5 = type { %union._ir_val }
%union._ir_val = type { double }
%union.anon.13 = type { ptr }
%struct._ir_strtab = type { ptr, i32, i32, i32, i32, ptr, i32, i32 }
%struct._ir_block = type { i32, i32, i32, i32, i32, i32, i32, %union.anon.14, %union.anon.15, i32, i32, i32, i32 }
%union.anon.14 = type { i32 }
%union.anon.15 = type { i32 }

@.str.28 = private unnamed_addr constant [3 x i8] c"}\0A\00", align 1
@.str.33 = private unnamed_addr constant [9 x i8] c"{ # CFG\0A\00", align 1

; Function Attrs: nounwind uwtable
define hidden void @ir_dump_cfg(ptr noundef %0, ptr noundef %1) #0 {
  %3 = alloca ptr, align 8
  %4 = alloca ptr, align 8
  %5 = alloca i32, align 4
  %6 = alloca i32, align 4
  %7 = alloca i32, align 4
  %8 = alloca ptr, align 8
  store ptr %0, ptr %3, align 8, !tbaa !4
  store ptr %1, ptr %4, align 8, !tbaa !9
  %9 = load ptr, ptr %3, align 8, !tbaa !4
  %10 = getelementptr inbounds nuw %struct._ir_ctx, ptr %9, i32 0, i32 18
  %11 = load ptr, ptr %10, align 8, !tbaa !43
  %12 = icmp ne ptr %11, null
  br i1 %12, label %13, label %73

13:                                               ; preds = %2
  call void @llvm.lifetime.start.p0(i64 4, ptr %5) #6
  call void @llvm.lifetime.start.p0(i64 4, ptr %6) #6
  call void @llvm.lifetime.start.p0(i64 4, ptr %7) #6
  %14 = load ptr, ptr %3, align 8, !tbaa !4
  %15 = getelementptr inbounds nuw %struct._ir_ctx, ptr %14, i32 0, i32 16
  %16 = load i32, ptr %15, align 4, !tbaa !44
  store i32 %16, ptr %7, align 4, !tbaa !30
  call void @llvm.lifetime.start.p0(i64 8, ptr %8) #6
  %17 = load ptr, ptr %3, align 8, !tbaa !4
  %18 = getelementptr inbounds nuw %struct._ir_ctx, ptr %17, i32 0, i32 18
  %19 = load ptr, ptr %18, align 8, !tbaa !43
  %20 = getelementptr inbounds %struct._ir_block, ptr %19, i64 1
  store ptr %20, ptr %8, align 8, !tbaa !45
  %21 = load ptr, ptr %4, align 8, !tbaa !9
  %22 = call i32 (ptr, ptr, ...) @fprintf(ptr noundef %21, ptr noundef @.str.33) #6
  %23 = load ptr, ptr %3, align 8, !tbaa !4
  %24 = getelementptr inbounds nuw %struct._ir_ctx, ptr %23, i32 0, i32 21
  %25 = load ptr, ptr %24, align 8, !tbaa !46
  %26 = icmp ne ptr %25, null
  br i1 %26, label %27, label %54

27:                                               ; preds = %13
  store i32 1, ptr %6, align 4, !tbaa !30
  br label %28

28:                                               ; preds = %50, %27
  %29 = load i32, ptr %6, align 4, !tbaa !30
  %30 = load i32, ptr %7, align 4, !tbaa !30
  %31 = icmp ule i32 %29, %30
  br i1 %31, label %32, label %53

32:                                               ; preds = %28
  %33 = load ptr, ptr %3, align 8, !tbaa !4
  %34 = getelementptr inbounds nuw %struct._ir_ctx, ptr %33, i32 0, i32 21
  %35 = load ptr, ptr %34, align 8, !tbaa !46
  %36 = load i32, ptr %6, align 4, !tbaa !30
  %37 = zext i32 %36 to i64
  %38 = getelementptr inbounds nuw i32, ptr %35, i64 %37
  %39 = load i32, ptr %38, align 4, !tbaa !30
  store i32 %39, ptr %5, align 4, !tbaa !30
  %40 = load ptr, ptr %3, align 8, !tbaa !4
  %41 = getelementptr inbounds nuw %struct._ir_ctx, ptr %40, i32 0, i32 18
  %42 = load ptr, ptr %41, align 8, !tbaa !43
  %43 = load i32, ptr %5, align 4, !tbaa !30
  %44 = zext i32 %43 to i64
  %45 = getelementptr inbounds nuw %struct._ir_block, ptr %42, i64 %44
  store ptr %45, ptr %8, align 8, !tbaa !45
  %46 = load ptr, ptr %3, align 8, !tbaa !4
  %47 = load ptr, ptr %4, align 8, !tbaa !9
  %48 = load i32, ptr %5, align 4, !tbaa !30
  %49 = load ptr, ptr %8, align 8, !tbaa !45
  call void @ir_dump_cfg_block(ptr noundef %46, ptr noundef %47, i32 noundef %48, ptr noundef %49)
  br label %50

50:                                               ; preds = %32
  %51 = load i32, ptr %6, align 4, !tbaa !30
  %52 = add i32 %51, 1
  store i32 %52, ptr %6, align 4, !tbaa !30
  br label %28

53:                                               ; preds = %28
  br label %70

54:                                               ; preds = %13
  store i32 1, ptr %5, align 4, !tbaa !30
  br label %55

55:                                               ; preds = %64, %54
  %56 = load i32, ptr %5, align 4, !tbaa !30
  %57 = load i32, ptr %7, align 4, !tbaa !30
  %58 = icmp ule i32 %56, %57
  br i1 %58, label %59, label %69

59:                                               ; preds = %55
  %60 = load ptr, ptr %3, align 8, !tbaa !4
  %61 = load ptr, ptr %4, align 8, !tbaa !9
  %62 = load i32, ptr %5, align 4, !tbaa !30
  %63 = load ptr, ptr %8, align 8, !tbaa !45
  call void @ir_dump_cfg_block(ptr noundef %60, ptr noundef %61, i32 noundef %62, ptr noundef %63)
  br label %64

64:                                               ; preds = %59
  %65 = load i32, ptr %5, align 4, !tbaa !30
  %66 = add i32 %65, 1
  store i32 %66, ptr %5, align 4, !tbaa !30
  %67 = load ptr, ptr %8, align 8, !tbaa !45
  %68 = getelementptr inbounds nuw %struct._ir_block, ptr %67, i32 1
  store ptr %68, ptr %8, align 8, !tbaa !45
  br label %55

69:                                               ; preds = %55
  br label %70

70:                                               ; preds = %69, %53
  %71 = load ptr, ptr %4, align 8, !tbaa !9
  %72 = call i32 (ptr, ptr, ...) @fprintf(ptr noundef %71, ptr noundef @.str.28) #6
  call void @llvm.lifetime.end.p0(i64 8, ptr %8) #6
  call void @llvm.lifetime.end.p0(i64 4, ptr %7) #6
  call void @llvm.lifetime.end.p0(i64 4, ptr %6) #6
  call void @llvm.lifetime.end.p0(i64 4, ptr %5) #6
  br label %73

73:                                               ; preds = %70, %2
  ret void
}