; Function Attrs: nounwind uwtable
define hidden void @ir_dump_cfg(ptr noundef readonly captures(none) %0, ptr noundef captures(none) %1) local_unnamed_addr #0 {
  %3 = getelementptr inbounds nuw i8, ptr %0, i64 104
  %4 = load ptr, ptr %3, align 8, !tbaa !37
  %.not = icmp eq ptr %4, null
  br i1 %.not, label %21, label %5

5:                                                ; preds = %2
  %6 = getelementptr inbounds nuw i8, ptr %0, i64 92
  %7 = load i32, ptr %6, align 4, !tbaa !38
  %8 = tail call i64 @fwrite(ptr nonnull @.str.33, i64 8, i64 1, ptr %1)
  %9 = getelementptr inbounds nuw i8, ptr %0, i64 128
  %10 = load ptr, ptr %9, align 8, !tbaa !39
  %.not27 = icmp eq ptr %10, null
  %.not2834 = icmp eq i32 %7, 0
  br i1 %.not27, label %.preheader, label %.preheader30

.preheader30:                                     ; preds = %5
  br i1 %.not2834, label %.loopexit, label %.lr.ph

.preheader:                                       ; preds = %5
  br i1 %.not2834, label %.loopexit, label %.lr.ph37

.lr.ph:                                           ; preds = %.preheader30, %.lr.ph
  %.02533 = phi i32 [ %18, %.lr.ph ], [ 1, %.preheader30 ]
  %11 = load ptr, ptr %9, align 8, !tbaa !39
  %12 = zext i32 %.02533 to i64
  %13 = getelementptr inbounds nuw i32, ptr %11, i64 %12
  %14 = load i32, ptr %13, align 4, !tbaa !30
  %15 = load ptr, ptr %3, align 8, !tbaa !37
  %16 = zext i32 %14 to i64
  %17 = getelementptr inbounds nuw %struct._ir_block, ptr %15, i64 %16
  tail call fastcc void @ir_dump_cfg_block(ptr noundef nonnull %0, ptr noundef %1, i32 noundef %14, ptr noundef %17)
  %18 = add i32 %.02533, 1
  %.not29 = icmp ugt i32 %18, %7
  br i1 %.not29, label %.loopexit, label %.lr.ph

.lr.ph37:                                         ; preds = %.preheader, %.lr.ph37
  %.pn36 = phi ptr [ %.0, %.lr.ph37 ], [ %4, %.preheader ]
  %.02435 = phi i32 [ %19, %.lr.ph37 ], [ 1, %.preheader ]
  %.0 = getelementptr inbounds nuw i8, ptr %.pn36, i64 52
  tail call fastcc void @ir_dump_cfg_block(ptr noundef %0, ptr noundef %1, i32 noundef %.02435, ptr noundef nonnull %.0)
  %19 = add i32 %.02435, 1
  %.not28 = icmp ugt i32 %19, %7
  br i1 %.not28, label %.loopexit, label %.lr.ph37

.loopexit:                                        ; preds = %.lr.ph, %.lr.ph37, %.preheader30, %.preheader
  %20 = tail call i64 @fwrite(ptr nonnull @.str.28, i64 2, i64 1, ptr %1)
  br label %21

21:                                               ; preds = %.loopexit, %2
  ret void
}